
guess:     file format elf64-x86-64


Disassembly of section .init:

0000000000000720 <_init>:
 720:	48 83 ec 08          	sub    rsp,0x8
 724:	48 8b 05 bd 08 20 00 	mov    rax,QWORD PTR [rip+0x2008bd]        # 200fe8 <__gmon_start__>
 72b:	48 85 c0             	test   rax,rax
 72e:	74 02                	je     732 <_init+0x12>
 730:	ff d0                	call   rax
 732:	48 83 c4 08          	add    rsp,0x8
 736:	c3                   	ret    

Disassembly of section .plt:

0000000000000740 <.plt>:
 740:	ff 35 3a 08 20 00    	push   QWORD PTR [rip+0x20083a]        # 200f80 <_GLOBAL_OFFSET_TABLE_+0x8>
 746:	ff 25 3c 08 20 00    	jmp    QWORD PTR [rip+0x20083c]        # 200f88 <_GLOBAL_OFFSET_TABLE_+0x10>
 74c:	0f 1f 40 00          	nop    DWORD PTR [rax+0x0]

0000000000000750 <puts@plt>:
 750:	ff 25 3a 08 20 00    	jmp    QWORD PTR [rip+0x20083a]        # 200f90 <puts@GLIBC_2.2.5>
 756:	68 00 00 00 00       	push   0x0
 75b:	e9 e0 ff ff ff       	jmp    740 <.plt>

0000000000000760 <getpid@plt>:
 760:	ff 25 32 08 20 00    	jmp    QWORD PTR [rip+0x200832]        # 200f98 <getpid@GLIBC_2.2.5>
 766:	68 01 00 00 00       	push   0x1
 76b:	e9 d0 ff ff ff       	jmp    740 <.plt>

0000000000000770 <printf@plt>:
 770:	ff 25 2a 08 20 00    	jmp    QWORD PTR [rip+0x20082a]        # 200fa0 <printf@GLIBC_2.2.5>
 776:	68 02 00 00 00       	push   0x2
 77b:	e9 c0 ff ff ff       	jmp    740 <.plt>

0000000000000780 <srand@plt>:
 780:	ff 25 22 08 20 00    	jmp    QWORD PTR [rip+0x200822]        # 200fa8 <srand@GLIBC_2.2.5>
 786:	68 03 00 00 00       	push   0x3
 78b:	e9 b0 ff ff ff       	jmp    740 <.plt>

0000000000000790 <fgets@plt>:
 790:	ff 25 1a 08 20 00    	jmp    QWORD PTR [rip+0x20081a]        # 200fb0 <fgets@GLIBC_2.2.5>
 796:	68 04 00 00 00       	push   0x4
 79b:	e9 a0 ff ff ff       	jmp    740 <.plt>

00000000000007a0 <strtol@plt>:
 7a0:	ff 25 12 08 20 00    	jmp    QWORD PTR [rip+0x200812]        # 200fb8 <strtol@GLIBC_2.2.5>
 7a6:	68 05 00 00 00       	push   0x5
 7ab:	e9 90 ff ff ff       	jmp    740 <.plt>

00000000000007b0 <time@plt>:
 7b0:	ff 25 0a 08 20 00    	jmp    QWORD PTR [rip+0x20080a]        # 200fc0 <time@GLIBC_2.2.5>
 7b6:	68 06 00 00 00       	push   0x6
 7bb:	e9 80 ff ff ff       	jmp    740 <.plt>

00000000000007c0 <setvbuf@plt>:
 7c0:	ff 25 02 08 20 00    	jmp    QWORD PTR [rip+0x200802]        # 200fc8 <setvbuf@GLIBC_2.2.5>
 7c6:	68 07 00 00 00       	push   0x7
 7cb:	e9 70 ff ff ff       	jmp    740 <.plt>

00000000000007d0 <rand@plt>:
 7d0:	ff 25 fa 07 20 00    	jmp    QWORD PTR [rip+0x2007fa]        # 200fd0 <rand@GLIBC_2.2.5>
 7d6:	68 08 00 00 00       	push   0x8
 7db:	e9 60 ff ff ff       	jmp    740 <.plt>

Disassembly of section .plt.got:

00000000000007e0 <__cxa_finalize@plt>:
 7e0:	ff 25 12 08 20 00    	jmp    QWORD PTR [rip+0x200812]        # 200ff8 <__cxa_finalize@GLIBC_2.2.5>
 7e6:	66 90                	xchg   ax,ax

Disassembly of section .text:

00000000000007f0 <_start>:
 7f0:	31 ed                	xor    ebp,ebp
 7f2:	49 89 d1             	mov    r9,rdx
 7f5:	5e                   	pop    rsi
 7f6:	48 89 e2             	mov    rdx,rsp
 7f9:	48 83 e4 f0          	and    rsp,0xfffffffffffffff0
 7fd:	50                   	push   rax
 7fe:	54                   	push   rsp
 7ff:	4c 8d 05 6a 02 00 00 	lea    r8,[rip+0x26a]        # a70 <__libc_csu_fini>
 806:	48 8d 0d f3 01 00 00 	lea    rcx,[rip+0x1f3]        # a00 <__libc_csu_init>
 80d:	48 8d 3d e6 00 00 00 	lea    rdi,[rip+0xe6]        # 8fa <main>
 814:	ff 15 c6 07 20 00    	call   QWORD PTR [rip+0x2007c6]        # 200fe0 <__libc_start_main@GLIBC_2.2.5>
 81a:	f4                   	hlt    
 81b:	0f 1f 44 00 00       	nop    DWORD PTR [rax+rax*1+0x0]

0000000000000820 <deregister_tm_clones>:
 820:	48 8d 3d e9 07 20 00 	lea    rdi,[rip+0x2007e9]        # 201010 <stdout@@GLIBC_2.2.5>
 827:	55                   	push   rbp
 828:	48 8d 05 e1 07 20 00 	lea    rax,[rip+0x2007e1]        # 201010 <stdout@@GLIBC_2.2.5>
 82f:	48 39 f8             	cmp    rax,rdi
 832:	48 89 e5             	mov    rbp,rsp
 835:	74 19                	je     850 <deregister_tm_clones+0x30>
 837:	48 8b 05 9a 07 20 00 	mov    rax,QWORD PTR [rip+0x20079a]        # 200fd8 <_ITM_deregisterTMCloneTable>
 83e:	48 85 c0             	test   rax,rax
 841:	74 0d                	je     850 <deregister_tm_clones+0x30>
 843:	5d                   	pop    rbp
 844:	ff e0                	jmp    rax
 846:	66 2e 0f 1f 84 00 00 	nop    WORD PTR cs:[rax+rax*1+0x0]
 84d:	00 00 00 
 850:	5d                   	pop    rbp
 851:	c3                   	ret    
 852:	0f 1f 40 00          	nop    DWORD PTR [rax+0x0]
 856:	66 2e 0f 1f 84 00 00 	nop    WORD PTR cs:[rax+rax*1+0x0]
 85d:	00 00 00 

0000000000000860 <register_tm_clones>:
 860:	48 8d 3d a9 07 20 00 	lea    rdi,[rip+0x2007a9]        # 201010 <stdout@@GLIBC_2.2.5>
 867:	48 8d 35 a2 07 20 00 	lea    rsi,[rip+0x2007a2]        # 201010 <stdout@@GLIBC_2.2.5>
 86e:	55                   	push   rbp
 86f:	48 29 fe             	sub    rsi,rdi
 872:	48 89 e5             	mov    rbp,rsp
 875:	48 c1 fe 03          	sar    rsi,0x3
 879:	48 89 f0             	mov    rax,rsi
 87c:	48 c1 e8 3f          	shr    rax,0x3f
 880:	48 01 c6             	add    rsi,rax
 883:	48 d1 fe             	sar    rsi,1
 886:	74 18                	je     8a0 <register_tm_clones+0x40>
 888:	48 8b 05 61 07 20 00 	mov    rax,QWORD PTR [rip+0x200761]        # 200ff0 <_ITM_registerTMCloneTable>
 88f:	48 85 c0             	test   rax,rax
 892:	74 0c                	je     8a0 <register_tm_clones+0x40>
 894:	5d                   	pop    rbp
 895:	ff e0                	jmp    rax
 897:	66 0f 1f 84 00 00 00 	nop    WORD PTR [rax+rax*1+0x0]
 89e:	00 00 
 8a0:	5d                   	pop    rbp
 8a1:	c3                   	ret    
 8a2:	0f 1f 40 00          	nop    DWORD PTR [rax+0x0]
 8a6:	66 2e 0f 1f 84 00 00 	nop    WORD PTR cs:[rax+rax*1+0x0]
 8ad:	00 00 00 

00000000000008b0 <__do_global_dtors_aux>:
 8b0:	80 3d 71 07 20 00 00 	cmp    BYTE PTR [rip+0x200771],0x0        # 201028 <completed.7698>
 8b7:	75 2f                	jne    8e8 <__do_global_dtors_aux+0x38>
 8b9:	48 83 3d 37 07 20 00 	cmp    QWORD PTR [rip+0x200737],0x0        # 200ff8 <__cxa_finalize@GLIBC_2.2.5>
 8c0:	00 
 8c1:	55                   	push   rbp
 8c2:	48 89 e5             	mov    rbp,rsp
 8c5:	74 0c                	je     8d3 <__do_global_dtors_aux+0x23>
 8c7:	48 8b 3d 3a 07 20 00 	mov    rdi,QWORD PTR [rip+0x20073a]        # 201008 <__dso_handle>
 8ce:	e8 0d ff ff ff       	call   7e0 <__cxa_finalize@plt>
 8d3:	e8 48 ff ff ff       	call   820 <deregister_tm_clones>
 8d8:	c6 05 49 07 20 00 01 	mov    BYTE PTR [rip+0x200749],0x1        # 201028 <completed.7698>
 8df:	5d                   	pop    rbp
 8e0:	c3                   	ret    
 8e1:	0f 1f 80 00 00 00 00 	nop    DWORD PTR [rax+0x0]
 8e8:	f3 c3                	repz ret 
 8ea:	66 0f 1f 44 00 00    	nop    WORD PTR [rax+rax*1+0x0]

00000000000008f0 <frame_dummy>:
 8f0:	55                   	push   rbp
 8f1:	48 89 e5             	mov    rbp,rsp
 8f4:	5d                   	pop    rbp
 8f5:	e9 66 ff ff ff       	jmp    860 <register_tm_clones>

00000000000008fa <main>:
 8fa:	55                   	push   rbp
 8fb:	48 89 e5             	mov    rbp,rsp
 8fe:	53                   	push   rbx
 8ff:	48 83 ec 28          	sub    rsp,0x28
 903:	48 8b 05 06 07 20 00 	mov    rax,QWORD PTR [rip+0x200706]        # 201010 <stdout@@GLIBC_2.2.5>
 90a:	b9 00 00 00 00       	mov    ecx,0x0
 90f:	ba 02 00 00 00       	mov    edx,0x2
 914:	be 00 00 00 00       	mov    esi,0x0
 919:	48 89 c7             	mov    rdi,rax
 91c:	e8 9f fe ff ff       	call   7c0 <setvbuf@plt>
 921:	bf 00 00 00 00       	mov    edi,0x0
 926:	e8 85 fe ff ff       	call   7b0 <time@plt>
 92b:	89 c3                	mov    ebx,eax
 92d:	e8 2e fe ff ff       	call   760 <getpid@plt>
 932:	31 d8                	xor    eax,ebx
 934:	89 c7                	mov    edi,eax
 936:	e8 45 fe ff ff       	call   780 <srand@plt>
 93b:	e8 90 fe ff ff       	call   7d0 <rand@plt>
 940:	89 c1                	mov    ecx,eax
 942:	ba ad 8b db 68       	mov    edx,0x68db8bad
 947:	89 c8                	mov    eax,ecx
 949:	f7 ea                	imul   edx
 94b:	c1 fa 0c             	sar    edx,0xc
 94e:	89 c8                	mov    eax,ecx
 950:	c1 f8 1f             	sar    eax,0x1f
 953:	29 c2                	sub    edx,eax
 955:	89 d0                	mov    eax,edx
 957:	89 45 ec             	mov    DWORD PTR [rbp-0x14],eax
 95a:	8b 45 ec             	mov    eax,DWORD PTR [rbp-0x14]
 95d:	69 c0 10 27 00 00    	imul   eax,eax,0x2710
 963:	29 c1                	sub    ecx,eax
 965:	89 c8                	mov    eax,ecx
 967:	89 45 ec             	mov    DWORD PTR [rbp-0x14],eax
 96a:	48 8d 3d 13 01 00 00 	lea    rdi,[rip+0x113]        # a84 <_IO_stdin_used+0x4>
 971:	b8 00 00 00 00       	mov    eax,0x0
 976:	e8 f5 fd ff ff       	call   770 <printf@plt>
 97b:	48 8b 15 9e 06 20 00 	mov    rdx,QWORD PTR [rip+0x20069e]        # 201020 <stdin@@GLIBC_2.2.5>
 982:	48 8d 45 d0          	lea    rax,[rbp-0x30]
 986:	be 20 00 00 00       	mov    esi,0x20
 98b:	48 89 c7             	mov    rdi,rax
 98e:	e8 fd fd ff ff       	call   790 <fgets@plt>
 993:	48 85 c0             	test   rax,rax
 996:	74 51                	je     9e9 <main+0xef>
 998:	48 8d 45 d0          	lea    rax,[rbp-0x30]
 99c:	ba 00 00 00 00       	mov    edx,0x0
 9a1:	be 00 00 00 00       	mov    esi,0x0
 9a6:	48 89 c7             	mov    rdi,rax
 9a9:	e8 f2 fd ff ff       	call   7a0 <strtol@plt>
 9ae:	89 45 e8             	mov    DWORD PTR [rbp-0x18],eax
 9b1:	8b 45 e8             	mov    eax,DWORD PTR [rbp-0x18]
 9b4:	89 c6                	mov    esi,eax
 9b6:	48 8d 3d da 00 00 00 	lea    rdi,[rip+0xda]        # a97 <_IO_stdin_used+0x17>
 9bd:	b8 00 00 00 00       	mov    eax,0x0
 9c2:	e8 a9 fd ff ff       	call   770 <printf@plt>
 9c7:	8b 45 e8             	mov    eax,DWORD PTR [rbp-0x18]
 9ca:	3b 45 ec             	cmp    eax,DWORD PTR [rbp-0x14]
 9cd:	75 0e                	jne    9dd <main+0xe3>
 9cf:	48 8d 3d d3 00 00 00 	lea    rdi,[rip+0xd3]        # aa9 <_IO_stdin_used+0x29>
 9d6:	e8 75 fd ff ff       	call   750 <puts@plt>
 9db:	eb 0c                	jmp    9e9 <main+0xef>
 9dd:	48 8d 3d cc 00 00 00 	lea    rdi,[rip+0xcc]        # ab0 <_IO_stdin_used+0x30>
 9e4:	e8 67 fd ff ff       	call   750 <puts@plt>
 9e9:	b8 00 00 00 00       	mov    eax,0x0
 9ee:	48 83 c4 28          	add    rsp,0x28
 9f2:	5b                   	pop    rbx
 9f3:	5d                   	pop    rbp
 9f4:	c3                   	ret    
 9f5:	66 2e 0f 1f 84 00 00 	nop    WORD PTR cs:[rax+rax*1+0x0]
 9fc:	00 00 00 
 9ff:	90                   	nop

0000000000000a00 <__libc_csu_init>:
 a00:	41 57                	push   r15
 a02:	41 56                	push   r14
 a04:	49 89 d7             	mov    r15,rdx
 a07:	41 55                	push   r13
 a09:	41 54                	push   r12
 a0b:	4c 8d 25 66 03 20 00 	lea    r12,[rip+0x200366]        # 200d78 <__frame_dummy_init_array_entry>
 a12:	55                   	push   rbp
 a13:	48 8d 2d 66 03 20 00 	lea    rbp,[rip+0x200366]        # 200d80 <__init_array_end>
 a1a:	53                   	push   rbx
 a1b:	41 89 fd             	mov    r13d,edi
 a1e:	49 89 f6             	mov    r14,rsi
 a21:	4c 29 e5             	sub    rbp,r12
 a24:	48 83 ec 08          	sub    rsp,0x8
 a28:	48 c1 fd 03          	sar    rbp,0x3
 a2c:	e8 ef fc ff ff       	call   720 <_init>
 a31:	48 85 ed             	test   rbp,rbp
 a34:	74 20                	je     a56 <__libc_csu_init+0x56>
 a36:	31 db                	xor    ebx,ebx
 a38:	0f 1f 84 00 00 00 00 	nop    DWORD PTR [rax+rax*1+0x0]
 a3f:	00 
 a40:	4c 89 fa             	mov    rdx,r15
 a43:	4c 89 f6             	mov    rsi,r14
 a46:	44 89 ef             	mov    edi,r13d
 a49:	41 ff 14 dc          	call   QWORD PTR [r12+rbx*8]
 a4d:	48 83 c3 01          	add    rbx,0x1
 a51:	48 39 dd             	cmp    rbp,rbx
 a54:	75 ea                	jne    a40 <__libc_csu_init+0x40>
 a56:	48 83 c4 08          	add    rsp,0x8
 a5a:	5b                   	pop    rbx
 a5b:	5d                   	pop    rbp
 a5c:	41 5c                	pop    r12
 a5e:	41 5d                	pop    r13
 a60:	41 5e                	pop    r14
 a62:	41 5f                	pop    r15
 a64:	c3                   	ret    
 a65:	90                   	nop
 a66:	66 2e 0f 1f 84 00 00 	nop    WORD PTR cs:[rax+rax*1+0x0]
 a6d:	00 00 00 

0000000000000a70 <__libc_csu_fini>:
 a70:	f3 c3                	repz ret 

Disassembly of section .fini:

0000000000000a74 <_fini>:
 a74:	48 83 ec 08          	sub    rsp,0x8
 a78:	48 83 c4 08          	add    rsp,0x8
 a7c:	c3                   	ret    
